target datalayout = "e-m:e-p270:32:32-p271:32:32-p272:64:64-i64:64-i128:128-f80:128-n8:16:32:64-S128"
target triple = "x86_64-pc-linux-gnu"

%"class.pxrInternal_v0_24__pxrReserved__::TraceAggregateNode::Id" = type { i8 }
%"class.pxrInternal_v0_24__pxrReserved__::TraceAggregateNode" = type <{ %"class.pxrInternal_v0_24__pxrReserved__::TfRefBase.base", [4 x i8], %"class.pxrInternal_v0_24__pxrReserved__::TfWeakBase", %"class.pxrInternal_v0_24__pxrReserved__::TraceAggregateNode::Id", [7 x i8], %"class.pxrInternal_v0_24__pxrReserved__::TfToken", i64, i64, i32, i32, i32, [4 x i8], %"class.pxrInternal_v0_24__pxrReserved__::TfWeakPtr", i64, %"class.std::vector", %"class.pxrInternal_v0_24__pxrReserved__::TfDenseHashMap", %"class.pxrInternal_v0_24__pxrReserved__::TfDenseHashMap.10", i8, [7 x i8] }>
%"class.pxrInternal_v0_24__pxrReserved__::TfRefBase.base" = type <{ ptr, %"struct.std::atomic" }>
%"struct.std::atomic" = type { %"struct.std::__atomic_base" }
%"struct.std::__atomic_base" = type { i32 }
%"class.pxrInternal_v0_24__pxrReserved__::TfWeakBase" = type { %"struct.std::atomic.0" }
%"struct.std::atomic.0" = type { %"struct.std::__atomic_base.1" }
%"struct.std::__atomic_base.1" = type { ptr }
%"class.pxrInternal_v0_24__pxrReserved__::TfToken" = type { %"class.pxrInternal_v0_24__pxrReserved__::TfPointerAndBits" }
%"class.pxrInternal_v0_24__pxrReserved__::TfPointerAndBits" = type { ptr }
%"class.pxrInternal_v0_24__pxrReserved__::TfWeakPtr" = type { ptr, %"class.pxrInternal_v0_24__pxrReserved__::TfRefPtr.2" }
%"class.pxrInternal_v0_24__pxrReserved__::TfRefPtr.2" = type { ptr }
%"class.std::vector" = type { %"struct.std::_Vector_base" }
%"struct.std::_Vector_base" = type { %"struct.std::_Vector_base<pxrInternal_v0_24__pxrReserved__::TfRefPtr<pxrInternal_v0_24__pxrReserved__::TraceAggregateNode>, std::allocator<pxrInternal_v0_24__pxrReserved__::TfRefPtr<pxrInternal_v0_24__pxrReserved__::TraceAggregateNode>>>::_Vector_impl" }
%"struct.std::_Vector_base<pxrInternal_v0_24__pxrReserved__::TfRefPtr<pxrInternal_v0_24__pxrReserved__::TraceAggregateNode>, std::allocator<pxrInternal_v0_24__pxrReserved__::TfRefPtr<pxrInternal_v0_24__pxrReserved__::TraceAggregateNode>>>::_Vector_impl" = type { %"struct.std::_Vector_base<pxrInternal_v0_24__pxrReserved__::TfRefPtr<pxrInternal_v0_24__pxrReserved__::TraceAggregateNode>, std::allocator<pxrInternal_v0_24__pxrReserved__::TfRefPtr<pxrInternal_v0_24__pxrReserved__::TraceAggregateNode>>>::_Vector_impl_data" }
%"struct.std::_Vector_base<pxrInternal_v0_24__pxrReserved__::TfRefPtr<pxrInternal_v0_24__pxrReserved__::TraceAggregateNode>, std::allocator<pxrInternal_v0_24__pxrReserved__::TfRefPtr<pxrInternal_v0_24__pxrReserved__::TraceAggregateNode>>>::_Vector_impl_data" = type { ptr, ptr, ptr }
%"class.pxrInternal_v0_24__pxrReserved__::TfDenseHashMap" = type { %"struct.pxrInternal_v0_24__pxrReserved__::TfDenseHashMap<pxrInternal_v0_24__pxrReserved__::TfToken, unsigned long, pxrInternal_v0_24__pxrReserved__::TfHash>::_CompressedStorage", %"class.std::unique_ptr" }
%"struct.pxrInternal_v0_24__pxrReserved__::TfDenseHashMap<pxrInternal_v0_24__pxrReserved__::TfToken, unsigned long, pxrInternal_v0_24__pxrReserved__::TfHash>::_CompressedStorage" = type { %"class.std::vector.3" }
%"class.std::vector.3" = type { %"struct.std::_Vector_base.4" }
%"struct.std::_Vector_base.4" = type { %"struct.std::_Vector_base<pxrInternal_v0_24__pxrReserved__::TfDenseHashMap<pxrInternal_v0_24__pxrReserved__::TfToken, unsigned long, pxrInternal_v0_24__pxrReserved__::TfHash>::_InternalValueType, std::allocator<pxrInternal_v0_24__pxrReserved__::TfDenseHashMap<pxrInternal_v0_24__pxrReserved__::TfToken, unsigned long, pxrInternal_v0_24__pxrReserved__::TfHash>::_InternalValueType>>::_Vector_impl" }
%"struct.std::_Vector_base<pxrInternal_v0_24__pxrReserved__::TfDenseHashMap<pxrInternal_v0_24__pxrReserved__::TfToken, unsigned long, pxrInternal_v0_24__pxrReserved__::TfHash>::_InternalValueType, std::allocator<pxrInternal_v0_24__pxrReserved__::TfDenseHashMap<pxrInternal_v0_24__pxrReserved__::TfToken, unsigned long, pxrInternal_v0_24__pxrReserved__::TfHash>::_InternalValueType>>::_Vector_impl" = type { %"struct.std::_Vector_base<pxrInternal_v0_24__pxrReserved__::TfDenseHashMap<pxrInternal_v0_24__pxrReserved__::TfToken, unsigned long, pxrInternal_v0_24__pxrReserved__::TfHash>::_InternalValueType, std::allocator<pxrInternal_v0_24__pxrReserved__::TfDenseHashMap<pxrInternal_v0_24__pxrReserved__::TfToken, unsigned long, pxrInternal_v0_24__pxrReserved__::TfHash>::_InternalValueType>>::_Vector_impl_data" }
%"struct.std::_Vector_base<pxrInternal_v0_24__pxrReserved__::TfDenseHashMap<pxrInternal_v0_24__pxrReserved__::TfToken, unsigned long, pxrInternal_v0_24__pxrReserved__::TfHash>::_InternalValueType, std::allocator<pxrInternal_v0_24__pxrReserved__::TfDenseHashMap<pxrInternal_v0_24__pxrReserved__::TfToken, unsigned long, pxrInternal_v0_24__pxrReserved__::TfHash>::_InternalValueType>>::_Vector_impl_data" = type { ptr, ptr, ptr }
%"class.std::unique_ptr" = type { %"struct.std::__uniq_ptr_data" }
%"struct.std::__uniq_ptr_data" = type { %"class.std::__uniq_ptr_impl" }
%"class.std::__uniq_ptr_impl" = type { %"class.std::tuple" }
%"class.std::tuple" = type { %"struct.std::_Tuple_impl" }
%"struct.std::_Tuple_impl" = type { %"struct.std::_Head_base.9" }
%"struct.std::_Head_base.9" = type { ptr }
%"class.pxrInternal_v0_24__pxrReserved__::TfDenseHashMap.10" = type { %"struct.pxrInternal_v0_24__pxrReserved__::TfDenseHashMap<int, pxrInternal_v0_24__pxrReserved__::TraceAggregateNode::_CounterValue, pxrInternal_v0_24__pxrReserved__::TfHash>::_CompressedStorage", %"class.std::unique_ptr.18" }
%"struct.pxrInternal_v0_24__pxrReserved__::TfDenseHashMap<int, pxrInternal_v0_24__pxrReserved__::TraceAggregateNode::_CounterValue, pxrInternal_v0_24__pxrReserved__::TfHash>::_CompressedStorage" = type { %"class.std::vector.13" }
%"class.std::vector.13" = type { %"struct.std::_Vector_base.14" }
%"struct.std::_Vector_base.14" = type { %"struct.std::_Vector_base<pxrInternal_v0_24__pxrReserved__::TfDenseHashMap<int, pxrInternal_v0_24__pxrReserved__::TraceAggregateNode::_CounterValue, pxrInternal_v0_24__pxrReserved__::TfHash>::_InternalValueType, std::allocator<pxrInternal_v0_24__pxrReserved__::TfDenseHashMap<int, pxrInternal_v0_24__pxrReserved__::TraceAggregateNode::_CounterValue, pxrInternal_v0_24__pxrReserved__::TfHash>::_InternalValueType>>::_Vector_impl" }
%"struct.std::_Vector_base<pxrInternal_v0_24__pxrReserved__::TfDenseHashMap<int, pxrInternal_v0_24__pxrReserved__::TraceAggregateNode::_CounterValue, pxrInternal_v0_24__pxrReserved__::TfHash>::_InternalValueType, std::allocator<pxrInternal_v0_24__pxrReserved__::TfDenseHashMap<int, pxrInternal_v0_24__pxrReserved__::TraceAggregateNode::_CounterValue, pxrInternal_v0_24__pxrReserved__::TfHash>::_InternalValueType>>::_Vector_impl" = type { %"struct.std::_Vector_base<pxrInternal_v0_24__pxrReserved__::TfDenseHashMap<int, pxrInternal_v0_24__pxrReserved__::TraceAggregateNode::_CounterValue, pxrInternal_v0_24__pxrReserved__::TfHash>::_InternalValueType, std::allocator<pxrInternal_v0_24__pxrReserved__::TfDenseHashMap<int, pxrInternal_v0_24__pxrReserved__::TraceAggregateNode::_CounterValue, pxrInternal_v0_24__pxrReserved__::TfHash>::_InternalValueType>>::_Vector_impl_data" }
%"struct.std::_Vector_base<pxrInternal_v0_24__pxrReserved__::TfDenseHashMap<int, pxrInternal_v0_24__pxrReserved__::TraceAggregateNode::_CounterValue, pxrInternal_v0_24__pxrReserved__::TfHash>::_InternalValueType, std::allocator<pxrInternal_v0_24__pxrReserved__::TfDenseHashMap<int, pxrInternal_v0_24__pxrReserved__::TraceAggregateNode::_CounterValue, pxrInternal_v0_24__pxrReserved__::TfHash>::_InternalValueType>>::_Vector_impl_data" = type { ptr, ptr, ptr }
%"class.std::unique_ptr.18" = type { %"struct.std::__uniq_ptr_data.19" }
%"struct.std::__uniq_ptr_data.19" = type { %"class.std::__uniq_ptr_impl.20" }
%"class.std::__uniq_ptr_impl.20" = type { %"class.std::tuple.21" }
%"class.std::tuple.21" = type { %"struct.std::_Tuple_impl.22" }
%"struct.std::_Tuple_impl.22" = type { %"struct.std::_Head_base.25" }
%"struct.std::_Head_base.25" = type { ptr }
%"class.pxrInternal_v0_24__pxrReserved__::TfDenseHashMap<int, pxrInternal_v0_24__pxrReserved__::TraceAggregateNode::_CounterValue, pxrInternal_v0_24__pxrReserved__::TfHash>::_IteratorBase" = type { %"class.__gnu_cxx::__normal_iterator" }
%"class.__gnu_cxx::__normal_iterator" = type { ptr }
%"struct.std::pair" = type { i32, %"struct.pxrInternal_v0_24__pxrReserved__::TraceAggregateNode::_CounterValue" }
%"struct.pxrInternal_v0_24__pxrReserved__::TraceAggregateNode::_CounterValue" = type { double, double }
%"struct.std::pair.88" = type <{ %"class.pxrInternal_v0_24__pxrReserved__::TfDenseHashMap<int, pxrInternal_v0_24__pxrReserved__::TraceAggregateNode::_CounterValue, pxrInternal_v0_24__pxrReserved__::TfHash>::_IteratorBase", i8, [7 x i8] }>
%"struct.pxrInternal_v0_24__pxrReserved__::TfDenseHashMap<int, pxrInternal_v0_24__pxrReserved__::TraceAggregateNode::_CounterValue, pxrInternal_v0_24__pxrReserved__::TfHash>::_InternalValueType" = type { %"struct.std::pair" }

; Function Attrs: mustprogress nounwind uwtable
define linkonce_odr noundef nonnull align 8 dereferenceable(24) ptr @_ZN32pxrInternal_v0_24__pxrReserved__14TfDenseHashMapIiNS_18TraceAggregateNode13_CounterValueENS_6TfHashESt8equal_toIiELj128EE18_InternalValueType8GetValueEv(ptr noundef nonnull align 8 dereferenceable(24) %0) #1 comdat align 2 {
  %2 = alloca ptr, align 8
  store ptr %0, ptr %2, align 8
  %3 = load ptr, ptr %2, align 8
  %4 = getelementptr inbounds nuw %"struct.pxrInternal_v0_24__pxrReserved__::TfDenseHashMap<int, pxrInternal_v0_24__pxrReserved__::TraceAggregateNode::_CounterValue, pxrInternal_v0_24__pxrReserved__::TfHash>::_InternalValueType", ptr %3, i32 0, i32 0
  ret ptr %4
}

; Function Attrs: mustprogress nounwind uwtable
define linkonce_odr noundef ptr @_ZNK9__gnu_cxx17__normal_iteratorIPN32pxrInternal_v0_24__pxrReserved__14TfDenseHashMapIiNS1_18TraceAggregateNode13_CounterValueENS1_6TfHashESt8equal_toIiELj128EE18_InternalValueTypeESt6vectorIS9_SaIS9_EEEptEv(ptr noundef nonnull align 8 dereferenceable(8) %0) #1 comdat align 2 {
  %2 = alloca ptr, align 8
  store ptr %0, ptr %2, align 8
  %3 = load ptr, ptr %2, align 8
  %4 = getelementptr inbounds nuw %"class.__gnu_cxx::__normal_iterator", ptr %3, i32 0, i32 0
  %5 = load ptr, ptr %4, align 8
  ret ptr %5
}

; Function Attrs: mustprogress uwtable
define linkonce_odr noundef nonnull align 8 dereferenceable(24) ptr @_ZNK32pxrInternal_v0_24__pxrReserved__14TfDenseHashMapIiNS_18TraceAggregateNode13_CounterValueENS_6TfHashESt8equal_toIiELj128EE13_IteratorBaseISt4pairIKiS2_EN9__gnu_cxx17__normal_iteratorIPNS6_18_InternalValueTypeESt6vectorISD_SaISD_EEEEE11dereferenceEv(ptr noundef nonnull align 8 dereferenceable(8) %0) #0 comdat align 2 {
  %2 = alloca ptr, align 8
  store ptr %0, ptr %2, align 8
  %3 = load ptr, ptr %2, align 8
  %4 = getelementptr inbounds nuw %"class.pxrInternal_v0_24__pxrReserved__::TfDenseHashMap<int, pxrInternal_v0_24__pxrReserved__::TraceAggregateNode::_CounterValue, pxrInternal_v0_24__pxrReserved__::TfHash>::_IteratorBase", ptr %3, i32 0, i32 0
  %5 = call noundef ptr @_ZNK9__gnu_cxx17__normal_iteratorIPN32pxrInternal_v0_24__pxrReserved__14TfDenseHashMapIiNS1_18TraceAggregateNode13_CounterValueENS1_6TfHashESt8equal_toIiELj128EE18_InternalValueTypeESt6vectorIS9_SaIS9_EEEptEv(ptr noundef nonnull align 8 dereferenceable(8) %4) #11
  %6 = call noundef nonnull align 8 dereferenceable(24) ptr @_ZN32pxrInternal_v0_24__pxrReserved__14TfDenseHashMapIiNS_18TraceAggregateNode13_CounterValueENS_6TfHashESt8equal_toIiELj128EE18_InternalValueType8GetValueEv(ptr noundef nonnull align 8 dereferenceable(24) %5)
  ret ptr %6
}

; Function Attrs: mustprogress uwtable
define linkonce_odr noundef ptr @_ZNK32pxrInternal_v0_24__pxrReserved__14TfDenseHashMapIiNS_18TraceAggregateNode13_CounterValueENS_6TfHashESt8equal_toIiELj128EE13_IteratorBaseISt4pairIKiS2_EN9__gnu_cxx17__normal_iteratorIPNS6_18_InternalValueTypeESt6vectorISD_SaISD_EEEEEptEv(ptr noundef nonnull align 8 dereferenceable(8) %0) #0 comdat align 2 {
  %2 = alloca ptr, align 8
  store ptr %0, ptr %2, align 8
  %3 = load ptr, ptr %2, align 8
  %4 = call noundef nonnull align 8 dereferenceable(24) ptr @_ZNK32pxrInternal_v0_24__pxrReserved__14TfDenseHashMapIiNS_18TraceAggregateNode13_CounterValueENS_6TfHashESt8equal_toIiELj128EE13_IteratorBaseISt4pairIKiS2_EN9__gnu_cxx17__normal_iteratorIPNS6_18_InternalValueTypeESt6vectorISD_SaISD_EEEEE11dereferenceEv(ptr noundef nonnull align 8 dereferenceable(8) %3)
  ret ptr %4
}

; Function Attrs: mustprogress nounwind uwtable
define linkonce_odr void @_ZNSt4pairIKiN32pxrInternal_v0_24__pxrReserved__18TraceAggregateNode13_CounterValueEEC2IRS0_S3_TnNSt9enable_ifIXaaclsr5_PCCPE22_MoveConstructiblePairIT_T0_EEclsr5_PCCPE30_ImplicitlyMoveConvertiblePairIS8_S9_EEEbE4typeELb1EEEOS8_OS9_(ptr noundef nonnull align 8 dereferenceable(24) %0, ptr noundef nonnull align 4 dereferenceable(4) %1, ptr noundef nonnull align 8 dereferenceable(16) %2) unnamed_addr #1 comdat align 2 {
  %4 = alloca ptr, align 8
  %5 = alloca ptr, align 8
  %6 = alloca ptr, align 8
  store ptr %0, ptr %4, align 8
  store ptr %1, ptr %5, align 8
  store ptr %2, ptr %6, align 8
  %7 = load ptr, ptr %4, align 8
  %8 = getelementptr inbounds nuw %"struct.std::pair", ptr %7, i32 0, i32 0
  %9 = load ptr, ptr %5, align 8
  %10 = load i32, ptr %9, align 4
  store i32 %10, ptr %8, align 8
  %11 = getelementptr inbounds nuw %"struct.std::pair", ptr %7, i32 0, i32 1
  %12 = load ptr, ptr %6, align 8
  call void @llvm.memcpy.p0.p0.i64(ptr align 8 %11, ptr align 8 %12, i64 16, i1 false)
  ret void
}

; Function Attrs: mustprogress nounwind uwtable
define linkonce_odr void @_ZN32pxrInternal_v0_24__pxrReserved__18TraceAggregateNode13_CounterValueC2Ev(ptr noundef nonnull align 8 dereferenceable(16) %0) unnamed_addr #1 comdat align 2 {
  %2 = alloca ptr, align 8
  store ptr %0, ptr %2, align 8
  %3 = load ptr, ptr %2, align 8
  %4 = getelementptr inbounds nuw %"struct.pxrInternal_v0_24__pxrReserved__::TraceAggregateNode::_CounterValue", ptr %3, i32 0, i32 0
  store double 0.000000e+00, ptr %4, align 8
  %5 = getelementptr inbounds nuw %"struct.pxrInternal_v0_24__pxrReserved__::TraceAggregateNode::_CounterValue", ptr %3, i32 0, i32 1
  store double 0.000000e+00, ptr %5, align 8
  ret void
}

; Function Attrs: mustprogress uwtable
define linkonce_odr noundef nonnull align 8 dereferenceable(16) ptr @_ZN32pxrInternal_v0_24__pxrReserved__14TfDenseHashMapIiNS_18TraceAggregateNode13_CounterValueENS_6TfHashESt8equal_toIiELj128EEixERKi(ptr noundef nonnull align 8 dereferenceable(32) %0, ptr noundef nonnull align 4 dereferenceable(4) %1) #0 comdat align 2 {
  %3 = alloca ptr, align 8
  %4 = alloca ptr, align 8
  %5 = alloca %"struct.std::pair.88", align 8
  %6 = alloca %"struct.std::pair", align 8
  %7 = alloca %"struct.pxrInternal_v0_24__pxrReserved__::TraceAggregateNode::_CounterValue", align 8
  %8 = alloca { ptr, i8 }, align 8
  store ptr %0, ptr %3, align 8
  store ptr %1, ptr %4, align 8
  %9 = load ptr, ptr %3, align 8
  %10 = load ptr, ptr %4, align 8
  call void @_ZN32pxrInternal_v0_24__pxrReserved__18TraceAggregateNode13_CounterValueC2Ev(ptr noundef nonnull align 8 dereferenceable(16) %7)
  call void @_ZNSt4pairIKiN32pxrInternal_v0_24__pxrReserved__18TraceAggregateNode13_CounterValueEEC2IRS0_S3_TnNSt9enable_ifIXaaclsr5_PCCPE22_MoveConstructiblePairIT_T0_EEclsr5_PCCPE30_ImplicitlyMoveConvertiblePairIS8_S9_EEEbE4typeELb1EEEOS8_OS9_(ptr noundef nonnull align 8 dereferenceable(24) %6, ptr noundef nonnull align 4 dereferenceable(4) %10, ptr noundef nonnull align 8 dereferenceable(16) %7)
  %11 = call { ptr, i8 } @_ZN32pxrInternal_v0_24__pxrReserved__14TfDenseHashMapIiNS_18TraceAggregateNode13_CounterValueENS_6TfHashESt8equal_toIiELj128EE6insertERKSt4pairIKiS2_E(ptr noundef nonnull align 8 dereferenceable(32) %9, ptr noundef nonnull align 8 dereferenceable(24) %6)
  store { ptr, i8 } %11, ptr %8, align 8
  call void @llvm.memcpy.p0.p0.i64(ptr align 8 %5, ptr align 8 %8, i64 9, i1 false)
  %12 = getelementptr inbounds nuw %"struct.std::pair.88", ptr %5, i32 0, i32 0
  %13 = call noundef ptr @_ZNK32pxrInternal_v0_24__pxrReserved__14TfDenseHashMapIiNS_18TraceAggregateNode13_CounterValueENS_6TfHashESt8equal_toIiELj128EE13_IteratorBaseISt4pairIKiS2_EN9__gnu_cxx17__normal_iteratorIPNS6_18_InternalValueTypeESt6vectorISD_SaISD_EEEEEptEv(ptr noundef nonnull align 8 dereferenceable(8) %12)
  %14 = getelementptr inbounds nuw %"struct.std::pair", ptr %13, i32 0, i32 1
  ret ptr %14
}

; Function Attrs: mustprogress uwtable
define void @_ZN32pxrInternal_v0_24__pxrReserved__18TraceAggregateNode27AppendInclusiveCounterValueEid(ptr noundef nonnull align 8 dereferenceable(185) %0, i32 noundef %1, double noundef %2) #0 align 2 {
  %4 = alloca ptr, align 8
  %5 = alloca i32, align 4
  %6 = alloca double, align 8
  store ptr %0, ptr %4, align 8
  store i32 %1, ptr %5, align 4
  store double %2, ptr %6, align 8
  %7 = load ptr, ptr %4, align 8
  %8 = load double, ptr %6, align 8
  %9 = getelementptr inbounds nuw %"class.pxrInternal_v0_24__pxrReserved__::TraceAggregateNode", ptr %7, i32 0, i32 16
  %10 = call noundef nonnull align 8 dereferenceable(16) ptr @_ZN32pxrInternal_v0_24__pxrReserved__14TfDenseHashMapIiNS_18TraceAggregateNode13_CounterValueENS_6TfHashESt8equal_toIiELj128EEixERKi(ptr noundef nonnull align 8 dereferenceable(32) %9, ptr noundef nonnull align 4 dereferenceable(4) %5)
  %11 = getelementptr inbounds nuw %"struct.pxrInternal_v0_24__pxrReserved__::TraceAggregateNode::_CounterValue", ptr %10, i32 0, i32 0
  %12 = load double, ptr %11, align 8
  %13 = fadd double %12, %8
  store double %13, ptr %11, align 8
  ret void
}