; Function Attrs: mustprogress uwtable
define void @_ZN32pxrInternal_v0_24__pxrReserved__18TraceAggregateNode27AppendInclusiveCounterValueEid(ptr noundef nonnull align 8 dereferenceable(185) %0, i32 noundef %1, double noundef %2) local_unnamed_addr #0 align 2 {
  %4 = alloca %"struct.std::pair", align 8
  %5 = getelementptr inbounds nuw i8, ptr %0, i64 152
  call void @llvm.lifetime.start.p0(i64 24, ptr nonnull %4)
  %6 = getelementptr inbounds nuw i8, ptr %4, i64 8
  call void @llvm.memset.p0.i64(ptr noundef nonnull align 8 dereferenceable(16) %6, i8 0, i64 16, i1 false)
  store i32 %1, ptr %4, align 8
  %7 = call { ptr, i8 } @_ZN32pxrInternal_v0_24__pxrReserved__14TfDenseHashMapIiNS_18TraceAggregateNode13_CounterValueENS_6TfHashESt8equal_toIiELj128EE6insertERKSt4pairIKiS2_E(ptr noundef nonnull align 8 dereferenceable(32) %5, ptr noundef nonnull align 8 dereferenceable(24) %4)
  %.fca.0.extract.i = extractvalue { ptr, i8 } %7, 0
  %8 = getelementptr inbounds nuw i8, ptr %.fca.0.extract.i, i64 8
  call void @llvm.lifetime.end.p0(i64 24, ptr nonnull %4)
  %9 = load double, ptr %8, align 8
  %10 = fadd double %2, %9
  store double %10, ptr %8, align 8
  ret void
}